; ModuleID = 'source-C-CXX/15/510.cpp'
source_filename = "source-C-CXX/15/510.cpp"
target datalayout = "e-m:e-p270:32:32-p271:32:32-p272:64:64-i64:64-f80:128-n8:16:32:64-S128"
target triple = "x86_64-pc-linux-gnu"

%"class.std::ios_base::Init" = type { i8 }
%"class.std::basic_istream" = type { i32 (...)**, i64, %"class.std::basic_ios" }
%"class.std::basic_ios" = type { %"class.std::ios_base", %"class.std::basic_ostream"*, i8, i8, %"class.std::basic_streambuf"*, %"class.std::ctype"*, %"class.std::num_put"*, %"class.std::num_get"* }
%"class.std::ios_base" = type { i32 (...)**, i64, i64, i32, i32, i32, %"struct.std::ios_base::_Callback_list"*, %"struct.std::ios_base::_Words", [8 x %"struct.std::ios_base::_Words"], i32, %"struct.std::ios_base::_Words"*, %"class.std::locale" }
%"struct.std::ios_base::_Callback_list" = type { %"struct.std::ios_base::_Callback_list"*, void (i32, %"class.std::ios_base"*, i32)*, i32, i32 }
%"struct.std::ios_base::_Words" = type { i8*, i64 }
%"class.std::locale" = type { %"class.std::locale::_Impl"* }
%"class.std::locale::_Impl" = type { i32, %"class.std::locale::facet"**, i64, %"class.std::locale::facet"**, i8** }
%"class.std::locale::facet" = type <{ i32 (...)**, i32, [4 x i8] }>
%"class.std::basic_ostream" = type { i32 (...)**, %"class.std::basic_ios" }
%"class.std::basic_streambuf" = type { i32 (...)**, i8*, i8*, i8*, i8*, i8*, i8*, %"class.std::locale" }
%"class.std::ctype" = type <{ %"class.std::locale::facet.base", [4 x i8], %struct.__locale_struct*, i8, [7 x i8], i32*, i32*, i16*, i8, [256 x i8], [256 x i8], i8, [6 x i8] }>
%"class.std::locale::facet.base" = type <{ i32 (...)**, i32 }>
%struct.__locale_struct = type { [13 x %struct.__locale_data*], i16*, i32*, i32*, [13 x i8*] }
%struct.__locale_data = type opaque
%"class.std::num_put" = type { %"class.std::locale::facet.base", [4 x i8] }
%"class.std::num_get" = type { %"class.std::locale::facet.base", [4 x i8] }

@_ZStL8__ioinit = internal global %"class.std::ios_base::Init" zeroinitializer, align 1
@__dso_handle = external hidden global i8
@_ZSt3cin = external global %"class.std::basic_istream", align 8
@_ZSt4cout = external global %"class.std::basic_ostream", align 8
@llvm.global_ctors = appending global [1 x { i32, void ()*, i8* }] [{ i32, void ()*, i8* } { i32 65535, void ()* @_GLOBAL__sub_I_510.cpp, i8* null }]

declare void @_ZNSt8ios_base4InitC1Ev(%"class.std::ios_base::Init"* nonnull align 1 dereferenceable(1)) unnamed_addr #0

; Function Attrs: nounwind
declare void @_ZNSt8ios_base4InitD1Ev(%"class.std::ios_base::Init"* nonnull align 1 dereferenceable(1)) unnamed_addr #1

; Function Attrs: nofree nounwind
declare i32 @__cxa_atexit(void (i8*)*, i8*, i8*) local_unnamed_addr #2

; Function Attrs: mustprogress norecurse sspstrong uwtable
define dso_local i32 @main() local_unnamed_addr #3 {
  %1 = alloca [6 x i8], align 1
  %2 = getelementptr inbounds [6 x i8], [6 x i8]* %1, i64 0, i64 0
  call void @llvm.lifetime.start.p0i8(i64 6, i8* nonnull %2) #7
  %3 = call nonnull align 8 dereferenceable(16) %"class.std::basic_istream"* @_ZNSi7getlineEPclc(%"class.std::basic_istream"* nonnull align 8 dereferenceable(16) @_ZSt3cin, i8* nonnull %2, i64 6, i8 signext 10)
  %4 = call i64 @strlen(i8* noundef nonnull %2) #8
  %5 = trunc i64 %4 to i32
  %6 = icmp sgt i32 %5, 1
  br i1 %6, label %7, label %49

7:                                                ; preds = %0
  %8 = lshr i64 %4, 1
  %9 = and i64 %8, 2147483647
  %10 = and i64 %8, 1
  %11 = icmp eq i64 %9, 1
  br i1 %11, label %37, label %12

12:                                               ; preds = %7
  %13 = sub nsw i64 %9, %10
  br label %14

14:                                               ; preds = %14, %12
  %15 = phi i64 [ 0, %12 ], [ %34, %14 ]
  %16 = phi i64 [ %13, %12 ], [ %35, %14 ]
  %17 = getelementptr inbounds [6 x i8], [6 x i8]* %1, i64 0, i64 %15
  %18 = load i8, i8* %17, align 1, !tbaa !5
  %19 = xor i64 %15, -1
  %20 = add i64 %4, %19
  %21 = shl i64 %20, 32
  %22 = ashr exact i64 %21, 32
  %23 = getelementptr inbounds [6 x i8], [6 x i8]* %1, i64 0, i64 %22
  %24 = load i8, i8* %23, align 1, !tbaa !5
  store i8 %24, i8* %17, align 1, !tbaa !5
  store i8 %18, i8* %23, align 1, !tbaa !5
  %25 = or i64 %15, 1
  %26 = getelementptr inbounds [6 x i8], [6 x i8]* %1, i64 0, i64 %25
  %27 = load i8, i8* %26, align 1, !tbaa !5
  %28 = sub nsw i64 4294967294, %15
  %29 = add i64 %4, %28
  %30 = shl i64 %29, 32
  %31 = ashr exact i64 %30, 32
  %32 = getelementptr inbounds [6 x i8], [6 x i8]* %1, i64 0, i64 %31
  %33 = load i8, i8* %32, align 1, !tbaa !5
  store i8 %33, i8* %26, align 1, !tbaa !5
  store i8 %27, i8* %32, align 1, !tbaa !5
  %34 = add nuw nsw i64 %15, 2
  %35 = add i64 %16, -2
  %36 = icmp eq i64 %35, 0
  br i1 %36, label %37, label %14, !llvm.loop !8

37:                                               ; preds = %14, %7
  %38 = phi i64 [ 0, %7 ], [ %34, %14 ]
  %39 = icmp eq i64 %10, 0
  br i1 %39, label %49, label %40

40:                                               ; preds = %37
  %41 = getelementptr inbounds [6 x i8], [6 x i8]* %1, i64 0, i64 %38
  %42 = load i8, i8* %41, align 1, !tbaa !5
  %43 = xor i64 %38, -1
  %44 = add i64 %4, %43
  %45 = shl i64 %44, 32
  %46 = ashr exact i64 %45, 32
  %47 = getelementptr inbounds [6 x i8], [6 x i8]* %1, i64 0, i64 %46
  %48 = load i8, i8* %47, align 1, !tbaa !5
  store i8 %48, i8* %41, align 1, !tbaa !5
  store i8 %42, i8* %47, align 1, !tbaa !5
  br label %49

49:                                               ; preds = %40, %37, %0
  %50 = call i64 @strlen(i8* noundef nonnull dereferenceable(1) %2) #7
  %51 = call nonnull align 8 dereferenceable(8) %"class.std::basic_ostream"* @_ZSt16__ostream_insertIcSt11char_traitsIcEERSt13basic_ostreamIT_T0_ES6_PKS3_l(%"class.std::basic_ostream"* nonnull align 8 dereferenceable(8) @_ZSt4cout, i8* nonnull %2, i64 %50)
  call void @llvm.lifetime.end.p0i8(i64 6, i8* nonnull %2) #7
  ret i32 0
}

; Function Attrs: argmemonly mustprogress nofree nosync nounwind willreturn
declare void @llvm.lifetime.start.p0i8(i64 immarg, i8* nocapture) #4

declare nonnull align 8 dereferenceable(16) %"class.std::basic_istream"* @_ZNSi7getlineEPclc(%"class.std::basic_istream"* nonnull align 8 dereferenceable(16), i8*, i64, i8 signext) local_unnamed_addr #0

; Function Attrs: argmemonly mustprogress nofree nounwind readonly willreturn
declare i64 @strlen(i8* nocapture) local_unnamed_addr #5

; Function Attrs: argmemonly mustprogress nofree nosync nounwind willreturn
declare void @llvm.lifetime.end.p0i8(i64 immarg, i8* nocapture) #4

declare nonnull align 8 dereferenceable(8) %"class.std::basic_ostream"* @_ZSt16__ostream_insertIcSt11char_traitsIcEERSt13basic_ostreamIT_T0_ES6_PKS3_l(%"class.std::basic_ostream"* nonnull align 8 dereferenceable(8), i8*, i64) local_unnamed_addr #0

; Function Attrs: sspstrong uwtable
define internal void @_GLOBAL__sub_I_510.cpp() #6 section ".text.startup" {
  tail call void @_ZNSt8ios_base4InitC1Ev(%"class.std::ios_base::Init"* nonnull align 1 dereferenceable(1) @_ZStL8__ioinit)
  %1 = tail call i32 @__cxa_atexit(void (i8*)* bitcast (void (%"class.std::ios_base::Init"*)* @_ZNSt8ios_base4InitD1Ev to void (i8*)*), i8* getelementptr inbounds (%"class.std::ios_base::Init", %"class.std::ios_base::Init"* @_ZStL8__ioinit, i64 0, i32 0), i8* nonnull @__dso_handle) #7
  ret void
}


!llvm.module.flags = !{!0, !1, !2, !3}
!llvm.ident = !{!4}

!0 = !{i32 1, !"wchar_size", i32 4}
!1 = !{i32 7, !"PIC Level", i32 2}
!2 = !{i32 7, !"PIE Level", i32 2}
!3 = !{i32 7, !"uwtable", i32 1}
!4 = !{!"clang version 13.0.0"}
!5 = !{!6, !6, i64 0}
!6 = !{!"omnipotent char", !7, i64 0}
!7 = !{!"Simple C++ TBAA"}
!8 = distinct !{!8, !9}
!9 = !{!"llvm.loop.mustprogress"}
